Certificate:
    Data:
        Version: 3 (0x2)
        Serial Number: 1 (0x1)
        Signature Algorithm: sha1WithRSAEncryption
        Issuer: CN=hackingwithpentesterlab.link
        Validity
            Not Before: Jun  7 16:58:38 2020 GMT
            Not After : Jun  7 16:58:38 2021 GMT
        Subject: C=AU, ST=Some-State, O=Internet Widgits Pty Ltd, CN=mitm4.pentesterlab.com
        Subject Public Key Info:
            Public Key Algorithm: rsaEncryption
                RSA Public-Key: (2048 bit)
                Modulus:
                    00:f5:a9:26:27:01:36:f2:bb:f9:21:a3:d2:4c:ab:
                    27:8c:3f:1f:f0:43:7a:24:cb:0a:8a:ec:fd:d6:7d:
                    8e:0a:6b:51:e4:10:f8:43:80:79:48:c8:24:fe:a8:
                    08:51:6a:30:10:34:f7:cd:6e:98:06:5c:25:0e:1d:
                    9a:d3:60:71:21:7c:f3:c5:7a:e3:f8:73:a2:33:16:
                    10:1b:35:00:04:39:8c:a1:2f:ed:3d:33:16:68:61:
                    cd:32:30:a4:75:bb:68:a7:98:b5:79:47:34:40:c4:
                    88:8f:5c:09:ab:9e:bb:5f:95:6d:a9:6b:bf:e0:f2:
                    a8:36:89:b0:b1:2e:f6:a0:af:8e:55:dd:cf:4d:c0:
                    61:7c:d3:6d:b1:c0:d1:e7:3a:bc:13:2b:b7:14:82:
                    bf:0d:c5:02:ae:43:68:8d:c6:ce:a5:39:24:e6:46:
                    fb:16:b7:41:12:6e:5e:9a:19:30:db:3f:10:cc:c5:
                    9e:fb:d7:0c:3b:0a:8b:d0:2e:ba:e1:aa:c0:ee:16:
                    ea:b1:10:df:54:ca:37:51:8b:9a:1a:f1:d0:c2:37:
                    ea:3f:a0:c4:85:a6:c1:5f:d2:4b:5c:f9:86:00:12:
                    a9:3b:4b:2e:08:06:49:fa:45:15:b4:20:46:a3:62:
                    23:ce:58:6e:f2:be:a2:89:32:7d:69:68:bf:14:e6:
                    88:e5
                Exponent: 65537 (0x10001)
        X509v3 extensions:
            X509v3 Basic Constraints: 
                CA:FALSE
            Netscape Comment: 
                OpenSSL Generated Certificate
            X509v3 Subject Key Identifier: 
                B6:25:BE:1C:AB:60:CA:88:02:71:4C:C2:6C:F1:37:83:18:5A:06:01
            X509v3 Authority Key Identifier: 
                keyid:5B:8A:15:66:45:F1:B4:0E:96:74:D7:66:FE:DF:38:B0:98:14:FB:04

    Signature Algorithm: sha1WithRSAEncryption
         09:67:42:e3:47:8d:ed:b1:6d:47:f9:1b:d4:66:31:8f:b4:83:
         5e:95:58:5a:c6:1a:82:3f:b2:09:72:7a:da:f8:59:f8:e5:9f:
         da:5e:50:47:81:ec:2b:1b:33:7f:26:d8:fe:ef:74:51:17:5e:
         83:21:41:f7:74:66:ca:8a:ec:2f:43:6c:f6:7e:3e:79:cb:bf:
         06:b6:66:df:ff:53:7b:c2:eb:5f:55:4d:de:eb:a7:f2:40:d4:
         c4:69:b8:b5:7f:05:51:9f:5f:60:19:1c:1a:28:a3:b2:46:b5:
         b2:96:d4:c9:f0:b2:d3:db:8d:1f:be:a0:1d:98:54:94:24:4f:
         84:d9:7b:06:44:be:c1:f0:e0:65:9f:8e:9d:ab:dd:3b:9e:cb:
         cc:d8:1b:e6:69:6c:9f:99:03:f7:c8:eb:02:e7:24:14:f3:f0:
         c8:67:f5:1c:52:57:3b:08:3b:ba:da:b7:18:b4:23:e5:79:9f:
         25:05:10:40:11:9b:50:01:67:50:8f:71:a9:8a:b8:b4:db:c5:
         64:a3:06:31:eb:32:c8:0c:6a:7f:c2:b0:b0:6d:6a:28:72:16:
         f3:d7:70:ae:5b:89:8e:99:2c:53:3e:fe:ea:98:f1:bf:8c:86:
         4d:cc:4f:5e:37:e8:df:07:a1:9e:4a:95:42:30:82:73:47:39:
         0f:ae:f7:90
-----BEGIN CERTIFICATE-----
MIIDgzCCAmugAwIBAgIBATANBgkqhkiG9w0BAQUFADAnMSUwIwYDVQQDExxoYWNr
aW5nd2l0aHBlbnRlc3RlcmxhYi5saW5rMB4XDTIwMDYwNzE2NTgzOFoXDTIxMDYw
NzE2NTgzOFowZjELMAkGA1UEBhMCQVUxEzARBgNVBAgMClNvbWUtU3RhdGUxITAf
BgNVBAoMGEludGVybmV0IFdpZGdpdHMgUHR5IEx0ZDEfMB0GA1UEAwwWbWl0bTQu
cGVudGVzdGVybGFiLmNvbTCCASIwDQYJKoZIhvcNAQEBBQADggEPADCCAQoCggEB
APWpJicBNvK7+SGj0kyrJ4w/H/BDeiTLCors/dZ9jgprUeQQ+EOAeUjIJP6oCFFq
MBA0981umAZcJQ4dmtNgcSF888V64/hzojMWEBs1AAQ5jKEv7T0zFmhhzTIwpHW7
aKeYtXlHNEDEiI9cCaueu1+Vbalrv+DyqDaJsLEu9qCvjlXdz03AYXzTbbHA0ec6
vBMrtxSCvw3FAq5DaI3GzqU5JOZG+xa3QRJuXpoZMNs/EMzFnvvXDDsKi9AuuuGq
wO4W6rEQ31TKN1GLmhrx0MI36j+gxIWmwV/SS1z5hgASqTtLLggGSfpFFbQgRqNi
I85YbvK+ookyfWlovxTmiOUCAwEAAaN7MHkwCQYDVR0TBAIwADAsBglghkgBhvhC
AQ0EHxYdT3BlblNTTCBHZW5lcmF0ZWQgQ2VydGlmaWNhdGUwHQYDVR0OBBYEFLYl
vhyrYMqIAnFMwmzxN4MYWgYBMB8GA1UdIwQYMBaAFFuKFWZF8bQOlnTXZv7fOLCY
FPsEMA0GCSqGSIb3DQEBBQUAA4IBAQAJZ0LjR43tsW1H+RvUZjGPtINelVhaxhqC
P7IJcnra+Fn45Z/aXlBHgewrGzN/Jtj+73RRF16DIUH3dGbKiuwvQ2z2fj55y78G
tmbf/1N7wutfVU3e66fyQNTEabi1fwVRn19gGRwaKKOyRrWyltTJ8LLT240fvqAd
mFSUJE+E2XsGRL7B8OBln46dq907nsvM2BvmaWyfmQP3yOsC5yQU8/DIZ/UcUlc7
CDu62rcYtCPleZ8lBRBAEZtQAWdQj3Gpiri028VkowYx6zLIDGp/wrCwbWoochbz
13CuW4mOmSxTPv7qmPG/jIZNzE9eN+jfB6GeSpVCMIJzRzkPrveQ
-----END CERTIFICATE-----
